; Function Attrs: nounwind sspstrong uwtable
define dso_local void @tcg_gen_mb(i32 noundef %0) local_unnamed_addr #2 {
  %2 = tail call align 8 ptr @llvm.threadlocal.address.p0(ptr align 8 @tcg_ctx)
  %3 = load ptr, ptr %2, align 8
  %4 = getelementptr inbounds nuw i8, ptr %3, i64 112
  %5 = load ptr, ptr %4, align 8
  %6 = getelementptr inbounds nuw i8, ptr %5, i64 20
  %7 = load i32, ptr %6, align 4
  %8 = and i32 %7, 32768
  %.not = icmp eq i32 %8, 0
  br i1 %.not, label %12, label %9

9:                                                ; preds = %1
  %10 = zext i32 %0 to i64
  %11 = tail call ptr @tcg_gen_op1(i32 noundef 4, i32 noundef 0, i64 noundef %10)
  br label %12

12:                                               ; preds = %9, %1
  ret void
}